target datalayout = "e-m:e-p270:32:32-p271:32:32-p272:64:64-i64:64-i128:128-f80:128-n8:16:32:64-S128"
target triple = "x86_64-pc-linux-gnu"

%struct.Aig_Man_t_ = type { ptr, ptr, ptr, ptr, ptr, ptr, ptr, %struct.Aig_Obj_t_, i32, i32, i32, i32, i32, i32, [7 x i32], i32, ptr, i32, ptr, i32, ptr, i32, i32, i32, ptr, i32, i32, i32, i32, i32, ptr, ptr, i32, ptr, ptr, i32, ptr, ptr, i32, i32, i32, ptr, ptr, ptr, ptr, ptr, ptr, ptr, ptr, ptr, ptr, ptr, ptr, ptr, ptr, i32, ptr, ptr, ptr, ptr, i32, i64, i64, i64, ptr, ptr }
%struct.Aig_Obj_t_ = type { %union.anon, ptr, ptr, i64, i32, i32, %union.anon.0 }
%union.anon = type { ptr }
%union.anon.0 = type { ptr }

@.str.5 = private unnamed_addr constant [9 x i8] c"%-15s : \00", align 1
@.str.6 = private unnamed_addr constant [11 x i8] c"pi = %5d  \00", align 1
@.str.7 = private unnamed_addr constant [11 x i8] c"po = %5d  \00", align 1
@.str.8 = private unnamed_addr constant [12 x i8] c"lat = %5d  \00", align 1
@.str.9 = private unnamed_addr constant [12 x i8] c"and = %7d  \00", align 1
@.str.10 = private unnamed_addr constant [12 x i8] c"xor = %5d  \00", align 1
@.str.11 = private unnamed_addr constant [11 x i8] c"ch = %5d  \00", align 1
@.str.12 = private unnamed_addr constant [12 x i8] c"buf = %5d  \00", align 1
@.str.13 = private unnamed_addr constant [10 x i8] c"lev = %3d\00", align 1
@.str.14 = private unnamed_addr constant [2 x i8] c"\0A\00", align 1
@stdout = external global ptr, align 8

; Function Attrs: inlinehint nounwind uwtable
define internal i32 @Aig_ManBufNum(ptr noundef %0) #4 {
  %2 = alloca ptr, align 8
  store ptr %0, ptr %2, align 8, !tbaa !7
  %3 = load ptr, ptr %2, align 8, !tbaa !7
  %4 = getelementptr inbounds nuw %struct.Aig_Man_t_, ptr %3, i32 0, i32 14
  %5 = getelementptr inbounds [7 x i32], ptr %4, i64 0, i64 4
  %6 = load i32, ptr %5, align 8, !tbaa !3
  ret i32 %6
}

; Function Attrs: inlinehint nounwind uwtable
define internal i32 @Aig_ManExorNum(ptr noundef %0) #4 {
  %2 = alloca ptr, align 8
  store ptr %0, ptr %2, align 8, !tbaa !7
  %3 = load ptr, ptr %2, align 8, !tbaa !7
  %4 = getelementptr inbounds nuw %struct.Aig_Man_t_, ptr %3, i32 0, i32 14
  %5 = getelementptr inbounds [7 x i32], ptr %4, i64 0, i64 6
  %6 = load i32, ptr %5, align 8, !tbaa !3
  ret i32 %6
}

; Function Attrs: inlinehint nounwind uwtable
define internal i32 @Aig_ManAndNum(ptr noundef %0) #4 {
  %2 = alloca ptr, align 8
  store ptr %0, ptr %2, align 8, !tbaa !7
  %3 = load ptr, ptr %2, align 8, !tbaa !7
  %4 = getelementptr inbounds nuw %struct.Aig_Man_t_, ptr %3, i32 0, i32 14
  %5 = getelementptr inbounds [7 x i32], ptr %4, i64 0, i64 5
  %6 = load i32, ptr %5, align 4, !tbaa !3
  ret i32 %6
}

; Function Attrs: inlinehint nounwind uwtable
define internal i32 @Aig_ManCoNum(ptr noundef %0) #4 {
  %2 = alloca ptr, align 8
  store ptr %0, ptr %2, align 8, !tbaa !7
  %3 = load ptr, ptr %2, align 8, !tbaa !7
  %4 = getelementptr inbounds nuw %struct.Aig_Man_t_, ptr %3, i32 0, i32 14
  %5 = getelementptr inbounds [7 x i32], ptr %4, i64 0, i64 3
  %6 = load i32, ptr %5, align 4, !tbaa !3
  ret i32 %6
}

; Function Attrs: inlinehint nounwind uwtable
define internal i32 @Aig_ManRegNum(ptr noundef %0) #4 {
  %2 = alloca ptr, align 8
  store ptr %0, ptr %2, align 8, !tbaa !7
  %3 = load ptr, ptr %2, align 8, !tbaa !7
  %4 = getelementptr inbounds nuw %struct.Aig_Man_t_, ptr %3, i32 0, i32 8
  %5 = load i32, ptr %4, align 8, !tbaa !85
  ret i32 %5
}

; Function Attrs: inlinehint nounwind uwtable
define internal i32 @Aig_ManCiNum(ptr noundef %0) #4 {
  %2 = alloca ptr, align 8
  store ptr %0, ptr %2, align 8, !tbaa !7
  %3 = load ptr, ptr %2, align 8, !tbaa !7
  %4 = getelementptr inbounds nuw %struct.Aig_Man_t_, ptr %3, i32 0, i32 14
  %5 = getelementptr inbounds [7 x i32], ptr %4, i64 0, i64 2
  %6 = load i32, ptr %5, align 8, !tbaa !3
  ret i32 %6
}

; Function Attrs: nounwind uwtable
define void @Aig_ManPrintStats(ptr noundef %0) #0 {
  %2 = alloca ptr, align 8
  %3 = alloca i32, align 4
  store ptr %0, ptr %2, align 8, !tbaa !7
  call void @llvm.lifetime.start.p0(i64 4, ptr %3) #10
  %4 = load ptr, ptr %2, align 8, !tbaa !7
  %5 = call i32 @Aig_ManChoiceNum(ptr noundef %4)
  store i32 %5, ptr %3, align 4, !tbaa !3
  %6 = load ptr, ptr %2, align 8, !tbaa !7
  %7 = getelementptr inbounds nuw %struct.Aig_Man_t_, ptr %6, i32 0, i32 0
  %8 = load ptr, ptr %7, align 8, !tbaa !44
  %9 = call i32 (ptr, ...) @printf(ptr noundef @.str.5, ptr noundef %8)
  %10 = load ptr, ptr %2, align 8, !tbaa !7
  %11 = call i32 @Aig_ManCiNum(ptr noundef %10)
  %12 = load ptr, ptr %2, align 8, !tbaa !7
  %13 = call i32 @Aig_ManRegNum(ptr noundef %12)
  %14 = sub nsw i32 %11, %13
  %15 = call i32 (ptr, ...) @printf(ptr noundef @.str.6, i32 noundef %14)
  %16 = load ptr, ptr %2, align 8, !tbaa !7
  %17 = call i32 @Aig_ManCoNum(ptr noundef %16)
  %18 = load ptr, ptr %2, align 8, !tbaa !7
  %19 = call i32 @Aig_ManRegNum(ptr noundef %18)
  %20 = sub nsw i32 %17, %19
  %21 = call i32 (ptr, ...) @printf(ptr noundef @.str.7, i32 noundef %20)
  %22 = load ptr, ptr %2, align 8, !tbaa !7
  %23 = call i32 @Aig_ManRegNum(ptr noundef %22)
  %24 = icmp ne i32 %23, 0
  br i1 %24, label %25, label %29

25:                                               ; preds = %1
  %26 = load ptr, ptr %2, align 8, !tbaa !7
  %27 = call i32 @Aig_ManRegNum(ptr noundef %26)
  %28 = call i32 (ptr, ...) @printf(ptr noundef @.str.8, i32 noundef %27)
  br label %29

29:                                               ; preds = %25, %1
  %30 = load ptr, ptr %2, align 8, !tbaa !7
  %31 = call i32 @Aig_ManAndNum(ptr noundef %30)
  %32 = call i32 (ptr, ...) @printf(ptr noundef @.str.9, i32 noundef %31)
  %33 = load ptr, ptr %2, align 8, !tbaa !7
  %34 = call i32 @Aig_ManExorNum(ptr noundef %33)
  %35 = icmp ne i32 %34, 0
  br i1 %35, label %36, label %40

36:                                               ; preds = %29
  %37 = load ptr, ptr %2, align 8, !tbaa !7
  %38 = call i32 @Aig_ManExorNum(ptr noundef %37)
  %39 = call i32 (ptr, ...) @printf(ptr noundef @.str.10, i32 noundef %38)
  br label %40

40:                                               ; preds = %36, %29
  %41 = load i32, ptr %3, align 4, !tbaa !3
  %42 = icmp ne i32 %41, 0
  br i1 %42, label %43, label %46

43:                                               ; preds = %40
  %44 = load i32, ptr %3, align 4, !tbaa !3
  %45 = call i32 (ptr, ...) @printf(ptr noundef @.str.11, i32 noundef %44)
  br label %46

46:                                               ; preds = %43, %40
  %47 = load ptr, ptr %2, align 8, !tbaa !7
  %48 = call i32 @Aig_ManBufNum(ptr noundef %47)
  %49 = icmp ne i32 %48, 0
  br i1 %49, label %50, label %54

50:                                               ; preds = %46
  %51 = load ptr, ptr %2, align 8, !tbaa !7
  %52 = call i32 @Aig_ManBufNum(ptr noundef %51)
  %53 = call i32 (ptr, ...) @printf(ptr noundef @.str.12, i32 noundef %52)
  br label %54

54:                                               ; preds = %50, %46
  %55 = load ptr, ptr %2, align 8, !tbaa !7
  %56 = call i32 @Aig_ManLevels(ptr noundef %55)
  %57 = call i32 (ptr, ...) @printf(ptr noundef @.str.13, i32 noundef %56)
  %58 = call i32 (ptr, ...) @printf(ptr noundef @.str.14)
  %59 = load ptr, ptr @stdout, align 8, !tbaa !66
  %60 = call i32 @fflush(ptr noundef %59)
  call void @llvm.lifetime.end.p0(i64 4, ptr %3) #10
  ret void
}