; Function Attrs: nounwind uwtable
define void @Aig_ManPrintStats(ptr noundef %0) local_unnamed_addr #0 {
  %2 = tail call i32 @Aig_ManChoiceNum(ptr noundef %0) #19
  %3 = load ptr, ptr %0, align 8, !tbaa !41
  %4 = tail call i32 (ptr, ...) @printf(ptr noundef nonnull dereferenceable(1) @.str.5, ptr noundef %3)
  %5 = getelementptr i8, ptr %0, i64 136
  %.val18 = load i32, ptr %5, align 8, !tbaa !35
  %6 = getelementptr i8, ptr %0, i64 104
  %.val22 = load i32, ptr %6, align 8, !tbaa !79
  %7 = sub nsw i32 %.val18, %.val22
  %8 = tail call i32 (ptr, ...) @printf(ptr noundef nonnull dereferenceable(1) @.str.6, i32 noundef %7)
  %9 = getelementptr i8, ptr %0, i64 140
  %.val = load i32, ptr %9, align 4, !tbaa !35
  %.val21 = load i32, ptr %6, align 8, !tbaa !79
  %10 = sub nsw i32 %.val, %.val21
  %11 = tail call i32 (ptr, ...) @printf(ptr noundef nonnull dereferenceable(1) @.str.7, i32 noundef %10)
  %.val20 = load i32, ptr %6, align 8, !tbaa !79
  %.not = icmp eq i32 %.val20, 0
  br i1 %.not, label %14, label %12

12:                                               ; preds = %1
  %13 = tail call i32 (ptr, ...) @printf(ptr noundef nonnull dereferenceable(1) @.str.8, i32 noundef %.val20)
  br label %14

14:                                               ; preds = %12, %1
  %15 = getelementptr i8, ptr %0, i64 148
  %.val23 = load i32, ptr %15, align 4, !tbaa !35
  %16 = tail call i32 (ptr, ...) @printf(ptr noundef nonnull dereferenceable(1) @.str.9, i32 noundef %.val23)
  %17 = getelementptr i8, ptr %0, i64 152
  %.val24 = load i32, ptr %17, align 8, !tbaa !35
  %.not15 = icmp eq i32 %.val24, 0
  br i1 %.not15, label %20, label %18

18:                                               ; preds = %14
  %19 = tail call i32 (ptr, ...) @printf(ptr noundef nonnull dereferenceable(1) @.str.10, i32 noundef %.val24)
  br label %20

20:                                               ; preds = %18, %14
  %.not16 = icmp eq i32 %2, 0
  br i1 %.not16, label %23, label %21

21:                                               ; preds = %20
  %22 = tail call i32 (ptr, ...) @printf(ptr noundef nonnull dereferenceable(1) @.str.11, i32 noundef %2)
  br label %23

23:                                               ; preds = %21, %20
  %24 = getelementptr i8, ptr %0, i64 144
  %.val26 = load i32, ptr %24, align 8, !tbaa !35
  %.not17 = icmp eq i32 %.val26, 0
  br i1 %.not17, label %27, label %25

25:                                               ; preds = %23
  %26 = tail call i32 (ptr, ...) @printf(ptr noundef nonnull dereferenceable(1) @.str.12, i32 noundef %.val26)
  br label %27

27:                                               ; preds = %25, %23
  %28 = tail call i32 @Aig_ManLevels(ptr noundef nonnull %0) #19
  %29 = tail call i32 (ptr, ...) @printf(ptr noundef nonnull dereferenceable(1) @.str.13, i32 noundef %28)
  %putchar = tail call i32 @putchar(i32 10)
  %30 = load ptr, ptr @stdout, align 8, !tbaa !70
  %31 = tail call i32 @fflush(ptr noundef %30)
  ret void
}